target datalayout = "e-m:e-p270:32:32-p271:32:32-p272:64:64-i64:64-i128:128-f80:128-n8:16:32:64-S128"
target triple = "x86_64-pc-linux-gnu"

%struct.agxbuf = type { %union.anon }
%union.anon = type { %struct.anon }
%struct.anon = type { ptr, i64, i64, [7 x i8], i8 }

@line_num = internal global i32 1, align 4
@InputFile = internal global ptr null, align 8
@yy_start = internal global i32 0, align 4
@aagtext = global ptr null, align 8
@.str.8 = private unnamed_addr constant [5 x i8] c"%s: \00", align 1
@.str.9 = private unnamed_addr constant [14 x i8] c"%s in line %d\00", align 1
@.str.10 = private unnamed_addr constant [11 x i8] c" near '%s'\00", align 1
@.str.11 = private unnamed_addr constant [62 x i8] c" scanning a quoted string (missing endquote? longer than %d?)\00", align 1
@Sbuf = internal global %struct.agxbuf zeroinitializer, align 8
@.str.12 = private unnamed_addr constant [24 x i8] c"\0AString starting:\22%.80s\00", align 1
@.str.13 = private unnamed_addr constant [68 x i8] c" scanning a HTML string (missing '>'? bad nesting? longer than %d?)\00", align 1
@.str.14 = private unnamed_addr constant [24 x i8] c"\0AString starting:<%.80s\00", align 1
@.str.15 = private unnamed_addr constant [59 x i8] c" scanning a /*...*/ comment (missing '*/? longer than %d?)\00", align 1
@.str.16 = private unnamed_addr constant [3 x i8] c"%s\00", align 1

; Function Attrs: nounwind uwtable
define internal i64 @agxbsizeof(ptr noundef %0) #0 {
  %2 = alloca i64, align 8
  %3 = alloca ptr, align 8
  store ptr %0, ptr %3, align 8
  %4 = load ptr, ptr %3, align 8
  %5 = call zeroext i1 @agxbuf_is_inline(ptr noundef %4)
  br i1 %5, label %6, label %7

6:                                                ; preds = %1
  store i64 31, ptr %2, align 8
  br label %12

7:                                                ; preds = %1
  %8 = load ptr, ptr %3, align 8
  %9 = getelementptr inbounds %struct.agxbuf, ptr %8, i32 0, i32 0
  %10 = getelementptr inbounds %struct.anon, ptr %9, i32 0, i32 2
  %11 = load i64, ptr %10, align 8
  store i64 %11, ptr %2, align 8
  br label %12

12:                                               ; preds = %7, %6
  %13 = load i64, ptr %2, align 8
  ret i64 %13
}

; Function Attrs: nounwind uwtable
define internal ptr @agxbstart(ptr noundef %0) #0 {
  %2 = alloca ptr, align 8
  store ptr %0, ptr %2, align 8
  %3 = load ptr, ptr %2, align 8
  %4 = call zeroext i1 @agxbuf_is_inline(ptr noundef %3)
  br i1 %4, label %5, label %9

5:                                                ; preds = %1
  %6 = load ptr, ptr %2, align 8
  %7 = getelementptr inbounds %struct.agxbuf, ptr %6, i32 0, i32 0
  %8 = getelementptr inbounds [31 x i8], ptr %7, i64 0, i64 0
  br label %14

9:                                                ; preds = %1
  %10 = load ptr, ptr %2, align 8
  %11 = getelementptr inbounds %struct.agxbuf, ptr %10, i32 0, i32 0
  %12 = getelementptr inbounds %struct.anon, ptr %11, i32 0, i32 0
  %13 = load ptr, ptr %12, align 8
  br label %14

14:                                               ; preds = %9, %5
  %15 = phi ptr [ %8, %5 ], [ %13, %9 ]
  ret ptr %15
}

; Function Attrs: nounwind uwtable
define internal void @agxbclear(ptr noundef %0) #0 {
  %2 = alloca ptr, align 8
  store ptr %0, ptr %2, align 8
  %3 = load ptr, ptr %2, align 8
  %4 = call zeroext i1 @agxbuf_is_inline(ptr noundef %3)
  br i1 %4, label %5, label %9

5:                                                ; preds = %1
  %6 = load ptr, ptr %2, align 8
  %7 = getelementptr inbounds %struct.agxbuf, ptr %6, i32 0, i32 0
  %8 = getelementptr inbounds %struct.anon, ptr %7, i32 0, i32 4
  store i8 0, ptr %8, align 1
  br label %13

9:                                                ; preds = %1
  %10 = load ptr, ptr %2, align 8
  %11 = getelementptr inbounds %struct.agxbuf, ptr %10, i32 0, i32 0
  %12 = getelementptr inbounds %struct.anon, ptr %11, i32 0, i32 1
  store i64 0, ptr %12, align 8
  br label %13

13:                                               ; preds = %9, %5
  ret void
}

; Function Attrs: nounwind uwtable
define internal zeroext i1 @agxbuf_is_inline(ptr noundef %0) #0 {
  %2 = alloca ptr, align 8
  store ptr %0, ptr %2, align 8
  %3 = load ptr, ptr %2, align 8
  %4 = getelementptr inbounds %struct.agxbuf, ptr %3, i32 0, i32 0
  %5 = getelementptr inbounds %struct.anon, ptr %4, i32 0, i32 4
  %6 = load i8, ptr %5, align 1
  %7 = zext i8 %6 to i32
  %8 = icmp slt i32 %7, 255
  ret i1 %8
}

; Function Attrs: nounwind uwtable
define internal void @agxbfree(ptr noundef %0) #0 {
  %2 = alloca ptr, align 8
  store ptr %0, ptr %2, align 8
  %3 = load ptr, ptr %2, align 8
  %4 = getelementptr inbounds %struct.agxbuf, ptr %3, i32 0, i32 0
  %5 = getelementptr inbounds %struct.anon, ptr %4, i32 0, i32 4
  %6 = load i8, ptr %5, align 1
  %7 = zext i8 %6 to i32
  %8 = icmp eq i32 %7, 255
  br i1 %8, label %9, label %14

9:                                                ; preds = %1
  %10 = load ptr, ptr %2, align 8
  %11 = getelementptr inbounds %struct.agxbuf, ptr %10, i32 0, i32 0
  %12 = getelementptr inbounds %struct.anon, ptr %11, i32 0, i32 0
  %13 = load ptr, ptr %12, align 8
  call void @free(ptr noundef %13) #14
  br label %14

14:                                               ; preds = %9, %1
  ret void
}

; Function Attrs: nounwind uwtable
define internal i32 @agxbputc(ptr noundef %0, i8 noundef signext %1) #0 {
  %3 = alloca ptr, align 8
  %4 = alloca i8, align 1
  %5 = alloca i64, align 8
  store ptr %0, ptr %3, align 8
  store i8 %1, ptr %4, align 1
  %6 = load ptr, ptr %3, align 8
  %7 = call i64 @agxblen(ptr noundef %6)
  %8 = load ptr, ptr %3, align 8
  %9 = call i64 @agxbsizeof(ptr noundef %8)
  %10 = icmp uge i64 %7, %9
  br i1 %10, label %11, label %13

11:                                               ; preds = %2
  %12 = load ptr, ptr %3, align 8
  call void @agxbmore(ptr noundef %12, i64 noundef 1)
  br label %13

13:                                               ; preds = %11, %2
  %14 = load ptr, ptr %3, align 8
  %15 = call i64 @agxblen(ptr noundef %14)
  store i64 %15, ptr %5, align 8
  %16 = load ptr, ptr %3, align 8
  %17 = call zeroext i1 @agxbuf_is_inline(ptr noundef %16)
  br i1 %17, label %18, label %29

18:                                               ; preds = %13
  %19 = load i8, ptr %4, align 1
  %20 = load ptr, ptr %3, align 8
  %21 = getelementptr inbounds %struct.agxbuf, ptr %20, i32 0, i32 0
  %22 = load i64, ptr %5, align 8
  %23 = getelementptr inbounds [31 x i8], ptr %21, i64 0, i64 %22
  store i8 %19, ptr %23, align 1
  %24 = load ptr, ptr %3, align 8
  %25 = getelementptr inbounds %struct.agxbuf, ptr %24, i32 0, i32 0
  %26 = getelementptr inbounds %struct.anon, ptr %25, i32 0, i32 4
  %27 = load i8, ptr %26, align 1
  %28 = add i8 %27, 1
  store i8 %28, ptr %26, align 1
  br label %42

29:                                               ; preds = %13
  %30 = load i8, ptr %4, align 1
  %31 = load ptr, ptr %3, align 8
  %32 = getelementptr inbounds %struct.agxbuf, ptr %31, i32 0, i32 0
  %33 = getelementptr inbounds %struct.anon, ptr %32, i32 0, i32 0
  %34 = load ptr, ptr %33, align 8
  %35 = load i64, ptr %5, align 8
  %36 = getelementptr inbounds i8, ptr %34, i64 %35
  store i8 %30, ptr %36, align 1
  %37 = load ptr, ptr %3, align 8
  %38 = getelementptr inbounds %struct.agxbuf, ptr %37, i32 0, i32 0
  %39 = getelementptr inbounds %struct.anon, ptr %38, i32 0, i32 1
  %40 = load i64, ptr %39, align 8
  %41 = add i64 %40, 1
  store i64 %41, ptr %39, align 8
  br label %42

42:                                               ; preds = %29, %18
  ret i32 0
}

; Function Attrs: nounwind uwtable
define internal ptr @agxbuse(ptr noundef %0) #0 {
  %2 = alloca ptr, align 8
  store ptr %0, ptr %2, align 8
  %3 = load ptr, ptr %2, align 8
  %4 = call i32 @agxbputc(ptr noundef %3, i8 noundef signext 0)
  %5 = load ptr, ptr %2, align 8
  call void @agxbclear(ptr noundef %5)
  %6 = load ptr, ptr %2, align 8
  %7 = call ptr @agxbstart(ptr noundef %6)
  ret ptr %7
}

; Function Attrs: nounwind uwtable
define internal i64 @agxblen(ptr noundef %0) #0 {
  %2 = alloca i64, align 8
  %3 = alloca ptr, align 8
  store ptr %0, ptr %3, align 8
  %4 = load ptr, ptr %3, align 8
  %5 = call zeroext i1 @agxbuf_is_inline(ptr noundef %4)
  br i1 %5, label %6, label %14

6:                                                ; preds = %1
  %7 = load ptr, ptr %3, align 8
  %8 = getelementptr inbounds %struct.agxbuf, ptr %7, i32 0, i32 0
  %9 = getelementptr inbounds %struct.anon, ptr %8, i32 0, i32 4
  %10 = load i8, ptr %9, align 1
  %11 = zext i8 %10 to i32
  %12 = sub nsw i32 %11, 0
  %13 = sext i32 %12 to i64
  store i64 %13, ptr %2, align 8
  br label %19

14:                                               ; preds = %1
  %15 = load ptr, ptr %3, align 8
  %16 = getelementptr inbounds %struct.agxbuf, ptr %15, i32 0, i32 0
  %17 = getelementptr inbounds %struct.anon, ptr %16, i32 0, i32 1
  %18 = load i64, ptr %17, align 8
  store i64 %18, ptr %2, align 8
  br label %19

19:                                               ; preds = %14, %6
  %20 = load i64, ptr %2, align 8
  ret i64 %20
}

; Function Attrs: nounwind uwtable
define void @aagerror(ptr noundef %0) #0 {
  %2 = alloca ptr, align 8
  %3 = alloca %struct.agxbuf, align 8
  store ptr %0, ptr %2, align 8
  call void @llvm.memset.p0.i64(ptr align 8 %3, i8 0, i64 32, i1 false)
  %4 = load ptr, ptr @InputFile, align 8
  %5 = icmp ne ptr %4, null
  br i1 %5, label %6, label %9

6:                                                ; preds = %1
  %7 = load ptr, ptr @InputFile, align 8
  %8 = call i32 (ptr, ptr, ...) @agxbprint(ptr noundef %3, ptr noundef @.str.8, ptr noundef %7)
  br label %9

9:                                                ; preds = %6, %1
  %10 = load ptr, ptr %2, align 8
  %11 = load i32, ptr @line_num, align 4
  %12 = call i32 (ptr, ptr, ...) @agxbprint(ptr noundef %3, ptr noundef @.str.9, ptr noundef %10, i32 noundef %11)
  %13 = load ptr, ptr @aagtext, align 8
  %14 = load i8, ptr %13, align 1
  %15 = icmp ne i8 %14, 0
  br i1 %15, label %16, label %19

16:                                               ; preds = %9
  %17 = load ptr, ptr @aagtext, align 8
  %18 = call i32 (ptr, ptr, ...) @agxbprint(ptr noundef %3, ptr noundef @.str.10, ptr noundef %17)
  br label %43

19:                                               ; preds = %9
  %20 = load i32, ptr @yy_start, align 4
  %21 = sub nsw i32 %20, 1
  %22 = sdiv i32 %21, 2
  switch i32 %22, label %41 [
    i32 2, label %23
    i32 3, label %31
    i32 1, label %39
  ]

23:                                               ; preds = %19
  %24 = call i32 (ptr, ptr, ...) @agxbprint(ptr noundef %3, ptr noundef @.str.11, i32 noundef 16384)
  %25 = call i64 @agxblen(ptr noundef @Sbuf)
  %26 = icmp ugt i64 %25, 0
  br i1 %26, label %27, label %30

27:                                               ; preds = %23
  %28 = call ptr @agxbuse(ptr noundef @Sbuf)
  %29 = call i32 (ptr, ptr, ...) @agxbprint(ptr noundef %3, ptr noundef @.str.12, ptr noundef %28)
  br label %30

30:                                               ; preds = %27, %23
  br label %42

31:                                               ; preds = %19
  %32 = call i32 (ptr, ptr, ...) @agxbprint(ptr noundef %3, ptr noundef @.str.13, i32 noundef 16384)
  %33 = call i64 @agxblen(ptr noundef @Sbuf)
  %34 = icmp ugt i64 %33, 0
  br i1 %34, label %35, label %38

35:                                               ; preds = %31
  %36 = call ptr @agxbuse(ptr noundef @Sbuf)
  %37 = call i32 (ptr, ptr, ...) @agxbprint(ptr noundef %3, ptr noundef @.str.14, ptr noundef %36)
  br label %38

38:                                               ; preds = %35, %31
  br label %42

39:                                               ; preds = %19
  %40 = call i32 (ptr, ptr, ...) @agxbprint(ptr noundef %3, ptr noundef @.str.15, i32 noundef 16384)
  br label %42

41:                                               ; preds = %19
  br label %42

42:                                               ; preds = %41, %39, %38, %30
  br label %43

43:                                               ; preds = %42, %16
  %44 = call i32 @agxbputc(ptr noundef %3, i8 noundef signext 10)
  %45 = call ptr @agxbuse(ptr noundef %3)
  %46 = call i32 (i32, ptr, ...) @agerr(i32 noundef 1, ptr noundef @.str.16, ptr noundef %45)
  call void @agxbfree(ptr noundef %3)
  store i32 1, ptr @yy_start, align 4
  ret void
}