; Function Attrs: nounwind uwtable
define void @aagerror(ptr noundef %0) local_unnamed_addr #1 {
  %2 = alloca %struct.agxbuf, align 8
  call void @llvm.memset.p0.i64(ptr noundef nonnull align 8 dereferenceable(32) %2, i8 0, i64 32, i1 false)
  %3 = load ptr, ptr @InputFile, align 8
  %.not = icmp eq ptr %3, null
  br i1 %.not, label %5, label %4

4:                                                ; preds = %1
  call void (ptr, ptr, ...) @agxbprint(ptr noundef %2, ptr noundef nonnull @.str.8, ptr noundef nonnull %3)
  br label %5

5:                                                ; preds = %4, %1
  %6 = load i32, ptr @line_num, align 4
  call void (ptr, ptr, ...) @agxbprint(ptr noundef %2, ptr noundef nonnull @.str.9, ptr noundef %0, i32 noundef %6)
  %7 = load ptr, ptr @aagtext, align 8
  %8 = load i8, ptr %7, align 1
  %.not1 = icmp eq i8 %8, 0
  br i1 %.not1, label %10, label %9

9:                                                ; preds = %5
  call void (ptr, ptr, ...) @agxbprint(ptr noundef %2, ptr noundef nonnull @.str.10, ptr noundef nonnull %7)
  br label %agxbsizeof.exit.i

10:                                               ; preds = %5
  %11 = load i32, ptr @yy_start, align 4
  %12 = add nsw i32 %11, -1
  %13 = sdiv i32 %12, 2
  switch i32 %13, label %agxbsizeof.exit.i [
    i32 2, label %14
    i32 3, label %35
    i32 1, label %56
  ]

14:                                               ; preds = %10
  call void (ptr, ptr, ...) @agxbprint(ptr noundef %2, ptr noundef nonnull @.str.11, i32 noundef 16384)
  %.val.i = load i8, ptr getelementptr inbounds nuw (i8, ptr @Sbuf, i64 31), align 1
  switch i8 %.val.i, label %agxblen.exit.i.i [
    i8 -1, label %agxblen.exit
    i8 0, label %agxbsizeof.exit.i
  ]

agxblen.exit:                                     ; preds = %14
  %15 = load i64, ptr getelementptr inbounds nuw (i8, ptr @Sbuf, i64 8), align 8
  %.not3 = icmp eq i64 %15, 0
  br i1 %.not3, label %agxbsizeof.exit.i, label %17

agxblen.exit.i.i:                                 ; preds = %14
  %16 = zext i8 %.val.i to i64
  br label %agxbsizeof.exit.i.i

17:                                               ; preds = %agxblen.exit
  %18 = load i64, ptr getelementptr inbounds nuw (i8, ptr @Sbuf, i64 16), align 8
  br label %agxbsizeof.exit.i.i

agxbsizeof.exit.i.i:                              ; preds = %17, %agxblen.exit.i.i
  %.0.i20.i.i = phi i64 [ %15, %17 ], [ %16, %agxblen.exit.i.i ]
  %.0.i14.i.i = phi i64 [ %18, %17 ], [ 31, %agxblen.exit.i.i ]
  %.not.i.i = icmp ult i64 %.0.i20.i.i, %.0.i14.i.i
  br i1 %.not.i.i, label %20, label %19

19:                                               ; preds = %agxbsizeof.exit.i.i
  tail call fastcc void @agxbmore(ptr noundef nonnull @Sbuf, i64 noundef 1)
  %.val.i15.pre.i.i = load i8, ptr getelementptr inbounds nuw (i8, ptr @Sbuf, i64 31), align 1
  br label %20

20:                                               ; preds = %19, %agxbsizeof.exit.i.i
  %.val.i15.i.i = phi i8 [ %.val.i15.pre.i.i, %19 ], [ %.val.i, %agxbsizeof.exit.i.i ]
  %.not.i16.i.i = icmp eq i8 %.val.i15.i.i, -1
  br i1 %.not.i16.i.i, label %26, label %21

21:                                               ; preds = %20
  %22 = zext i8 %.val.i15.i.i to i64
  %23 = getelementptr inbounds nuw [31 x i8], ptr @Sbuf, i64 0, i64 %22
  store i8 0, ptr %23, align 1
  %24 = load i8, ptr getelementptr inbounds nuw (i8, ptr @Sbuf, i64 31), align 1
  %25 = add i8 %24, 1
  store i8 %25, ptr getelementptr inbounds nuw (i8, ptr @Sbuf, i64 31), align 1
  br label %agxbputc.exit.i

26:                                               ; preds = %20
  %27 = load i64, ptr getelementptr inbounds nuw (i8, ptr @Sbuf, i64 8), align 8
  %28 = load ptr, ptr @Sbuf, align 8
  %29 = getelementptr inbounds i8, ptr %28, i64 %27
  store i8 0, ptr %29, align 1
  %30 = load i64, ptr getelementptr inbounds nuw (i8, ptr @Sbuf, i64 8), align 8
  %31 = add i64 %30, 1
  store i64 %31, ptr getelementptr inbounds nuw (i8, ptr @Sbuf, i64 8), align 8
  %.val.i.pr.i = load i8, ptr getelementptr inbounds nuw (i8, ptr @Sbuf, i64 31), align 1
  br label %agxbputc.exit.i

agxbputc.exit.i:                                  ; preds = %26, %21
  %.val.i4.pr.i = phi i8 [ %25, %21 ], [ %.val.i.pr.i, %26 ]
  %.not.i3.i = icmp eq i8 %.val.i4.pr.i, -1
  br i1 %.not.i3.i, label %32, label %agxbclear.exit.thread.i

agxbclear.exit.thread.i:                          ; preds = %agxbputc.exit.i
  store i8 0, ptr getelementptr inbounds nuw (i8, ptr @Sbuf, i64 31), align 1
  br label %agxbuse.exit

32:                                               ; preds = %agxbputc.exit.i
  store i64 0, ptr getelementptr inbounds nuw (i8, ptr @Sbuf, i64 8), align 8
  %33 = load ptr, ptr @Sbuf, align 8
  br label %agxbuse.exit

agxbuse.exit:                                     ; preds = %agxbclear.exit.thread.i, %32
  %34 = phi ptr [ %33, %32 ], [ @Sbuf, %agxbclear.exit.thread.i ]
  call void (ptr, ptr, ...) @agxbprint(ptr noundef %2, ptr noundef nonnull @.str.12, ptr noundef %34)
  br label %agxbsizeof.exit.i

35:                                               ; preds = %10
  call void (ptr, ptr, ...) @agxbprint(ptr noundef %2, ptr noundef nonnull @.str.13, i32 noundef 16384)
  %.val.i5 = load i8, ptr getelementptr inbounds nuw (i8, ptr @Sbuf, i64 31), align 1
  switch i8 %.val.i5, label %agxblen.exit.i.i11 [
    i8 -1, label %agxblen.exit8
    i8 0, label %agxbsizeof.exit.i
  ]

agxblen.exit8:                                    ; preds = %35
  %36 = load i64, ptr getelementptr inbounds nuw (i8, ptr @Sbuf, i64 8), align 8
  %.not2 = icmp eq i64 %36, 0
  br i1 %.not2, label %agxbsizeof.exit.i, label %38

agxblen.exit.i.i11:                               ; preds = %35
  %37 = zext i8 %.val.i5 to i64
  br label %agxbsizeof.exit.i.i12

38:                                               ; preds = %agxblen.exit8
  %39 = load i64, ptr getelementptr inbounds nuw (i8, ptr @Sbuf, i64 16), align 8
  br label %agxbsizeof.exit.i.i12

agxbsizeof.exit.i.i12:                            ; preds = %38, %agxblen.exit.i.i11
  %.0.i20.i.i13 = phi i64 [ %36, %38 ], [ %37, %agxblen.exit.i.i11 ]
  %.0.i14.i.i14 = phi i64 [ %39, %38 ], [ 31, %agxblen.exit.i.i11 ]
  %.not.i.i15 = icmp ult i64 %.0.i20.i.i13, %.0.i14.i.i14
  br i1 %.not.i.i15, label %41, label %40

40:                                               ; preds = %agxbsizeof.exit.i.i12
  tail call fastcc void @agxbmore(ptr noundef nonnull @Sbuf, i64 noundef 1)
  %.val.i15.pre.i.i16 = load i8, ptr getelementptr inbounds nuw (i8, ptr @Sbuf, i64 31), align 1
  br label %41

41:                                               ; preds = %40, %agxbsizeof.exit.i.i12
  %.val.i15.i.i17 = phi i8 [ %.val.i15.pre.i.i16, %40 ], [ %.val.i5, %agxbsizeof.exit.i.i12 ]
  %.not.i16.i.i18 = icmp eq i8 %.val.i15.i.i17, -1
  br i1 %.not.i16.i.i18, label %47, label %42

42:                                               ; preds = %41
  %43 = zext i8 %.val.i15.i.i17 to i64
  %44 = getelementptr inbounds nuw [31 x i8], ptr @Sbuf, i64 0, i64 %43
  store i8 0, ptr %44, align 1
  %45 = load i8, ptr getelementptr inbounds nuw (i8, ptr @Sbuf, i64 31), align 1
  %46 = add i8 %45, 1
  store i8 %46, ptr getelementptr inbounds nuw (i8, ptr @Sbuf, i64 31), align 1
  br label %agxbputc.exit.i19

47:                                               ; preds = %41
  %48 = load i64, ptr getelementptr inbounds nuw (i8, ptr @Sbuf, i64 8), align 8
  %49 = load ptr, ptr @Sbuf, align 8
  %50 = getelementptr inbounds i8, ptr %49, i64 %48
  store i8 0, ptr %50, align 1
  %51 = load i64, ptr getelementptr inbounds nuw (i8, ptr @Sbuf, i64 8), align 8
  %52 = add i64 %51, 1
  store i64 %52, ptr getelementptr inbounds nuw (i8, ptr @Sbuf, i64 8), align 8
  %.val.i.pr.i23 = load i8, ptr getelementptr inbounds nuw (i8, ptr @Sbuf, i64 31), align 1
  br label %agxbputc.exit.i19

agxbputc.exit.i19:                                ; preds = %47, %42
  %.val.i4.pr.i20 = phi i8 [ %46, %42 ], [ %.val.i.pr.i23, %47 ]
  %.not.i3.i21 = icmp eq i8 %.val.i4.pr.i20, -1
  br i1 %.not.i3.i21, label %53, label %agxbclear.exit.thread.i22

agxbclear.exit.thread.i22:                        ; preds = %agxbputc.exit.i19
  store i8 0, ptr getelementptr inbounds nuw (i8, ptr @Sbuf, i64 31), align 1
  br label %agxbuse.exit24

53:                                               ; preds = %agxbputc.exit.i19
  store i64 0, ptr getelementptr inbounds nuw (i8, ptr @Sbuf, i64 8), align 8
  %54 = load ptr, ptr @Sbuf, align 8
  br label %agxbuse.exit24

agxbuse.exit24:                                   ; preds = %agxbclear.exit.thread.i22, %53
  %55 = phi ptr [ %54, %53 ], [ @Sbuf, %agxbclear.exit.thread.i22 ]
  call void (ptr, ptr, ...) @agxbprint(ptr noundef %2, ptr noundef nonnull @.str.14, ptr noundef %55)
  br label %agxbsizeof.exit.i

56:                                               ; preds = %10
  call void (ptr, ptr, ...) @agxbprint(ptr noundef %2, ptr noundef nonnull @.str.15, i32 noundef 16384)
  br label %agxbsizeof.exit.i

agxbsizeof.exit.i:                                ; preds = %35, %14, %56, %agxbuse.exit, %agxblen.exit, %agxbuse.exit24, %agxblen.exit8, %10, %9
  %57 = getelementptr inbounds nuw i8, ptr %2, i64 31
  %.val.i.i = load i8, ptr %57, align 1
  %.not.i.i25 = icmp eq i8 %.val.i.i, -1
  %58 = getelementptr inbounds nuw i8, ptr %2, i64 8
  %59 = load i64, ptr %58, align 8
  %60 = getelementptr inbounds nuw i8, ptr %2, i64 16
  %61 = load i64, ptr %60, align 8
  %62 = zext i8 %.val.i.i to i64
  %.0.i20.i = select i1 %.not.i.i25, i64 %59, i64 %62
  %.0.i14.i = select i1 %.not.i.i25, i64 %61, i64 31
  %.not.i26 = icmp ult i64 %.0.i20.i, %.0.i14.i
  br i1 %.not.i26, label %64, label %63

63:                                               ; preds = %agxbsizeof.exit.i
  call fastcc void @agxbmore(ptr noundef nonnull %2, i64 noundef 1)
  %.val.i15.pre.i = load i8, ptr %57, align 1
  br label %64

64:                                               ; preds = %63, %agxbsizeof.exit.i
  %.val.i.i.i27.pr = phi i8 [ %.val.i15.pre.i, %63 ], [ %.val.i.i, %agxbsizeof.exit.i ]
  %.not.i16.i = icmp eq i8 %.val.i.i.i27.pr, -1
  br i1 %.not.i16.i, label %70, label %65

65:                                               ; preds = %64
  %66 = zext i8 %.val.i.i.i27.pr to i64
  %67 = getelementptr inbounds nuw [31 x i8], ptr %2, i64 0, i64 %66
  store i8 10, ptr %67, align 1
  %68 = load i8, ptr %57, align 1
  %69 = add i8 %68, 1
  store i8 %69, ptr %57, align 1
  %.pre = load i64, ptr %58, align 8
  br label %agxbputc.exit

70:                                               ; preds = %64
  %71 = load i64, ptr %58, align 8
  %72 = load ptr, ptr %2, align 8
  %73 = getelementptr inbounds i8, ptr %72, i64 %71
  store i8 10, ptr %73, align 1
  %74 = add i64 %71, 1
  store i64 %74, ptr %58, align 8
  br label %agxbputc.exit

agxbputc.exit:                                    ; preds = %65, %70
  %75 = phi i64 [ %.pre, %65 ], [ %74, %70 ]
  %.val.i.i.i27 = phi i8 [ %69, %65 ], [ -1, %70 ]
  %.not.i.i.i28 = icmp eq i8 %.val.i.i.i27, -1
  %76 = load i64, ptr %60, align 8
  %77 = zext i8 %.val.i.i.i27 to i64
  %.0.i20.i.i31 = select i1 %.not.i.i.i28, i64 %75, i64 %77
  %.0.i14.i.i32 = select i1 %.not.i.i.i28, i64 %76, i64 31
  %.not.i.i33 = icmp ult i64 %.0.i20.i.i31, %.0.i14.i.i32
  br i1 %.not.i.i33, label %79, label %78

78:                                               ; preds = %agxbputc.exit
  call fastcc void @agxbmore(ptr noundef nonnull %2, i64 noundef 1)
  %.val.i15.pre.i.i34 = load i8, ptr %57, align 1
  br label %79

79:                                               ; preds = %78, %agxbputc.exit
  %.val.i.pr.i41 = phi i8 [ %.val.i15.pre.i.i34, %78 ], [ %.val.i.i.i27, %agxbputc.exit ]
  %.not.i16.i.i36 = icmp eq i8 %.val.i.pr.i41, -1
  br i1 %.not.i16.i.i36, label %agxbputc.exit.i37.thread, label %agxbputc.exit.i37

agxbputc.exit.i37.thread:                         ; preds = %79
  %80 = load i64, ptr %58, align 8
  %81 = load ptr, ptr %2, align 8
  %82 = getelementptr inbounds i8, ptr %81, i64 %80
  store i8 0, ptr %82, align 1
  br label %88

agxbputc.exit.i37:                                ; preds = %79
  %83 = zext i8 %.val.i.pr.i41 to i64
  %84 = getelementptr inbounds nuw [31 x i8], ptr %2, i64 0, i64 %83
  store i8 0, ptr %84, align 1
  %85 = load i8, ptr %57, align 1
  %86 = add i8 %85, 1
  store i8 %86, ptr %57, align 1
  %87 = icmp eq i8 %86, -1
  br i1 %87, label %88, label %agxbclear.exit.thread.i40

agxbclear.exit.thread.i40:                        ; preds = %agxbputc.exit.i37
  store i8 0, ptr %57, align 1
  br label %agxbuse.exit42

88:                                               ; preds = %agxbputc.exit.i37.thread, %agxbputc.exit.i37
  store i64 0, ptr %58, align 8
  %89 = load ptr, ptr %2, align 8
  br label %agxbuse.exit42

agxbuse.exit42:                                   ; preds = %agxbclear.exit.thread.i40, %88
  %90 = phi ptr [ %89, %88 ], [ %2, %agxbclear.exit.thread.i40 ]
  %91 = call i32 (i32, ptr, ...) @agerr(i32 noundef 1, ptr noundef nonnull @.str.16, ptr noundef %90) #29
  %.val4 = load i8, ptr %57, align 1
  %92 = icmp eq i8 %.val4, -1
  br i1 %92, label %93, label %agxbfree.exit

93:                                               ; preds = %agxbuse.exit42
  %.val = load ptr, ptr %2, align 8
  call void @free(ptr noundef %.val) #29
  br label %agxbfree.exit

agxbfree.exit:                                    ; preds = %agxbuse.exit42, %93
  store i32 1, ptr @yy_start, align 4
  ret void
}